target datalayout = "e-m:e-p270:32:32-p271:32:32-p272:64:64-i64:64-i128:128-f80:128-n8:16:32:64-S128"
target triple = "x86_64-pc-linux-gnu"

%class.b3Vector3 = type { %union.anon }
%union.anon = type { [4 x float] }
%struct.b3DynamicBvh = type { ptr, ptr, i32, i32, i32, [4 x i8], %class.b3AlignedObjectArray, %class.b3AlignedObjectArray.0 }
%class.b3AlignedObjectArray = type <{ [4 x i8], i32, i32, [4 x i8], ptr, i8, [7 x i8] }>
%class.b3AlignedObjectArray.0 = type <{ [4 x i8], i32, i32, [4 x i8], ptr, i8, [7 x i8] }>
%struct.b3DbvtNode = type { %struct.b3DbvtAabbMm, ptr, %union.anon.4, [8 x i8] }
%struct.b3DbvtAabbMm = type { %class.b3Vector3, %class.b3Vector3 }
%union.anon.4 = type { [2 x ptr] }
%struct.anon = type { float, float, float, float }

; Function Attrs: inlinehint mustprogress nounwind uwtable
define linkonce_odr dso_local noundef nonnull align 16 dereferenceable(16) ptr @_ZN9b3Vector3pLERKS_(ptr noundef nonnull align 16 dereferenceable(16) %0, ptr noundef nonnull align 16 dereferenceable(16) %1) #6 comdat align 2 {
  %3 = alloca ptr, align 8
  %4 = alloca ptr, align 8
  store ptr %0, ptr %3, align 8, !tbaa !65
  store ptr %1, ptr %4, align 8, !tbaa !65
  %5 = load ptr, ptr %3, align 8
  %6 = load ptr, ptr %4, align 8, !tbaa !65
  %7 = getelementptr inbounds nuw %class.b3Vector3, ptr %6, i32 0, i32 0
  %8 = getelementptr inbounds [4 x float], ptr %7, i64 0, i64 0
  %9 = load float, ptr %8, align 16, !tbaa !29
  %10 = getelementptr inbounds nuw %class.b3Vector3, ptr %5, i32 0, i32 0
  %11 = getelementptr inbounds [4 x float], ptr %10, i64 0, i64 0
  %12 = load float, ptr %11, align 16, !tbaa !29
  %13 = fadd float %12, %9
  store float %13, ptr %11, align 16, !tbaa !29
  %14 = load ptr, ptr %4, align 8, !tbaa !65
  %15 = getelementptr inbounds nuw %class.b3Vector3, ptr %14, i32 0, i32 0
  %16 = getelementptr inbounds [4 x float], ptr %15, i64 0, i64 1
  %17 = load float, ptr %16, align 4, !tbaa !29
  %18 = getelementptr inbounds nuw %class.b3Vector3, ptr %5, i32 0, i32 0
  %19 = getelementptr inbounds [4 x float], ptr %18, i64 0, i64 1
  %20 = load float, ptr %19, align 4, !tbaa !29
  %21 = fadd float %20, %17
  store float %21, ptr %19, align 4, !tbaa !29
  %22 = load ptr, ptr %4, align 8, !tbaa !65
  %23 = getelementptr inbounds nuw %class.b3Vector3, ptr %22, i32 0, i32 0
  %24 = getelementptr inbounds [4 x float], ptr %23, i64 0, i64 2
  %25 = load float, ptr %24, align 8, !tbaa !29
  %26 = getelementptr inbounds nuw %class.b3Vector3, ptr %5, i32 0, i32 0
  %27 = getelementptr inbounds [4 x float], ptr %26, i64 0, i64 2
  %28 = load float, ptr %27, align 8, !tbaa !29
  %29 = fadd float %28, %25
  store float %29, ptr %27, align 8, !tbaa !29
  ret ptr %5
}

; Function Attrs: inlinehint mustprogress nounwind uwtable
define linkonce_odr dso_local noundef nonnull align 16 dereferenceable(16) ptr @_ZN9b3Vector3mIERKS_(ptr noundef nonnull align 16 dereferenceable(16) %0, ptr noundef nonnull align 16 dereferenceable(16) %1) #6 comdat align 2 {
  %3 = alloca ptr, align 8
  %4 = alloca ptr, align 8
  store ptr %0, ptr %3, align 8, !tbaa !65
  store ptr %1, ptr %4, align 8, !tbaa !65
  %5 = load ptr, ptr %3, align 8
  %6 = load ptr, ptr %4, align 8, !tbaa !65
  %7 = getelementptr inbounds nuw %class.b3Vector3, ptr %6, i32 0, i32 0
  %8 = getelementptr inbounds [4 x float], ptr %7, i64 0, i64 0
  %9 = load float, ptr %8, align 16, !tbaa !29
  %10 = getelementptr inbounds nuw %class.b3Vector3, ptr %5, i32 0, i32 0
  %11 = getelementptr inbounds [4 x float], ptr %10, i64 0, i64 0
  %12 = load float, ptr %11, align 16, !tbaa !29
  %13 = fsub float %12, %9
  store float %13, ptr %11, align 16, !tbaa !29
  %14 = load ptr, ptr %4, align 8, !tbaa !65
  %15 = getelementptr inbounds nuw %class.b3Vector3, ptr %14, i32 0, i32 0
  %16 = getelementptr inbounds [4 x float], ptr %15, i64 0, i64 1
  %17 = load float, ptr %16, align 4, !tbaa !29
  %18 = getelementptr inbounds nuw %class.b3Vector3, ptr %5, i32 0, i32 0
  %19 = getelementptr inbounds [4 x float], ptr %18, i64 0, i64 1
  %20 = load float, ptr %19, align 4, !tbaa !29
  %21 = fsub float %20, %17
  store float %21, ptr %19, align 4, !tbaa !29
  %22 = load ptr, ptr %4, align 8, !tbaa !65
  %23 = getelementptr inbounds nuw %class.b3Vector3, ptr %22, i32 0, i32 0
  %24 = getelementptr inbounds [4 x float], ptr %23, i64 0, i64 2
  %25 = load float, ptr %24, align 8, !tbaa !29
  %26 = getelementptr inbounds nuw %class.b3Vector3, ptr %5, i32 0, i32 0
  %27 = getelementptr inbounds [4 x float], ptr %26, i64 0, i64 2
  %28 = load float, ptr %27, align 8, !tbaa !29
  %29 = fsub float %28, %25
  store float %29, ptr %27, align 8, !tbaa !29
  ret ptr %5
}

; Function Attrs: inlinehint mustprogress nounwind uwtable
define linkonce_odr dso_local void @_ZN9b3Vector38setValueERKfS1_S1_(ptr noundef nonnull align 16 dereferenceable(16) %0, ptr noundef nonnull align 4 dereferenceable(4) %1, ptr noundef nonnull align 4 dereferenceable(4) %2, ptr noundef nonnull align 4 dereferenceable(4) %3) #6 comdat align 2 {
  %5 = alloca ptr, align 8
  %6 = alloca ptr, align 8
  %7 = alloca ptr, align 8
  %8 = alloca ptr, align 8
  store ptr %0, ptr %5, align 8, !tbaa !65
  store ptr %1, ptr %6, align 8, !tbaa !105
  store ptr %2, ptr %7, align 8, !tbaa !105
  store ptr %3, ptr %8, align 8, !tbaa !105
  %9 = load ptr, ptr %5, align 8
  %10 = load ptr, ptr %6, align 8, !tbaa !105
  %11 = load float, ptr %10, align 4, !tbaa !40
  %12 = getelementptr inbounds nuw %class.b3Vector3, ptr %9, i32 0, i32 0
  %13 = getelementptr inbounds [4 x float], ptr %12, i64 0, i64 0
  store float %11, ptr %13, align 16, !tbaa !29
  %14 = load ptr, ptr %7, align 8, !tbaa !105
  %15 = load float, ptr %14, align 4, !tbaa !40
  %16 = getelementptr inbounds nuw %class.b3Vector3, ptr %9, i32 0, i32 0
  %17 = getelementptr inbounds [4 x float], ptr %16, i64 0, i64 1
  store float %15, ptr %17, align 4, !tbaa !29
  %18 = load ptr, ptr %8, align 8, !tbaa !105
  %19 = load float, ptr %18, align 4, !tbaa !40
  %20 = getelementptr inbounds nuw %class.b3Vector3, ptr %9, i32 0, i32 0
  %21 = getelementptr inbounds [4 x float], ptr %20, i64 0, i64 2
  store float %19, ptr %21, align 8, !tbaa !29
  %22 = getelementptr inbounds nuw %class.b3Vector3, ptr %9, i32 0, i32 0
  %23 = getelementptr inbounds [4 x float], ptr %22, i64 0, i64 3
  store float 0.000000e+00, ptr %23, align 4, !tbaa !29
  ret void
}

; Function Attrs: mustprogress uwtable
define dso_local void @_ZN12b3DynamicBvh6updateEP10b3DbvtNodeR12b3DbvtAabbMm(ptr noundef nonnull align 8 dereferenceable(96) %0, ptr noundef %1, ptr noundef nonnull align 16 dereferenceable(32) %2) #0 align 2 {
  %4 = alloca ptr, align 8
  %5 = alloca ptr, align 8
  %6 = alloca ptr, align 8
  %7 = alloca ptr, align 8
  %8 = alloca i32, align 4
  store ptr %0, ptr %4, align 8, !tbaa !4
  store ptr %1, ptr %5, align 8, !tbaa !28
  store ptr %2, ptr %6, align 8, !tbaa !57
  %9 = load ptr, ptr %4, align 8
  call void @llvm.lifetime.start.p0(i64 8, ptr %7) #12
  %10 = load ptr, ptr %5, align 8, !tbaa !28
  %11 = call noundef ptr @_ZL12b3RemoveLeafP12b3DynamicBvhP10b3DbvtNode(ptr noundef %9, ptr noundef %10)
  store ptr %11, ptr %7, align 8, !tbaa !28
  %12 = load ptr, ptr %7, align 8, !tbaa !28
  %13 = icmp ne ptr %12, null
  br i1 %13, label %14, label %44

14:                                               ; preds = %3
  %15 = getelementptr inbounds nuw %struct.b3DynamicBvh, ptr %9, i32 0, i32 2
  %16 = load i32, ptr %15, align 8, !tbaa !21
  %17 = icmp sge i32 %16, 0
  br i1 %17, label %18, label %40

18:                                               ; preds = %14
  call void @llvm.lifetime.start.p0(i64 4, ptr %8) #12
  store i32 0, ptr %8, align 4, !tbaa !32
  br label %19

19:                                               ; preds = %36, %18
  %20 = load i32, ptr %8, align 4, !tbaa !32
  %21 = getelementptr inbounds nuw %struct.b3DynamicBvh, ptr %9, i32 0, i32 2
  %22 = load i32, ptr %21, align 8, !tbaa !21
  %23 = icmp slt i32 %20, %22
  br i1 %23, label %24, label %29

24:                                               ; preds = %19
  %25 = load ptr, ptr %7, align 8, !tbaa !28
  %26 = getelementptr inbounds nuw %struct.b3DbvtNode, ptr %25, i32 0, i32 1
  %27 = load ptr, ptr %26, align 16, !tbaa !45
  %28 = icmp ne ptr %27, null
  br label %29

29:                                               ; preds = %24, %19
  %30 = phi i1 [ false, %19 ], [ %28, %24 ]
  br i1 %30, label %32, label %31

31:                                               ; preds = %29
  call void @llvm.lifetime.end.p0(i64 4, ptr %8) #12
  br label %39

32:                                               ; preds = %29
  %33 = load ptr, ptr %7, align 8, !tbaa !28
  %34 = getelementptr inbounds nuw %struct.b3DbvtNode, ptr %33, i32 0, i32 1
  %35 = load ptr, ptr %34, align 16, !tbaa !45
  store ptr %35, ptr %7, align 8, !tbaa !28
  br label %36

36:                                               ; preds = %32
  %37 = load i32, ptr %8, align 4, !tbaa !32
  %38 = add nsw i32 %37, 1
  store i32 %38, ptr %8, align 4, !tbaa !32
  br label %19, !llvm.loop !64

39:                                               ; preds = %31
  br label %43

40:                                               ; preds = %14
  %41 = getelementptr inbounds nuw %struct.b3DynamicBvh, ptr %9, i32 0, i32 0
  %42 = load ptr, ptr %41, align 8, !tbaa !9
  store ptr %42, ptr %7, align 8, !tbaa !28
  br label %43

43:                                               ; preds = %40, %39
  br label %44

44:                                               ; preds = %43, %3
  %45 = load ptr, ptr %6, align 8, !tbaa !57
  %46 = load ptr, ptr %5, align 8, !tbaa !28
  %47 = getelementptr inbounds nuw %struct.b3DbvtNode, ptr %46, i32 0, i32 0
  call void @llvm.memcpy.p0.p0.i64(ptr align 16 %47, ptr align 16 %45, i64 32, i1 false), !tbaa.struct !60
  %48 = load ptr, ptr %7, align 8, !tbaa !28
  %49 = load ptr, ptr %5, align 8, !tbaa !28
  call void @_ZL12b3InsertLeafP12b3DynamicBvhP10b3DbvtNodeS2_(ptr noundef %9, ptr noundef %48, ptr noundef %49)
  call void @llvm.lifetime.end.p0(i64 8, ptr %7) #12
  ret void
}

; Function Attrs: inlinehint mustprogress uwtable
define linkonce_odr dso_local void @_ZN12b3DbvtAabbMm6ExpandERK9b3Vector3(ptr noundef nonnull align 16 dereferenceable(32) %0, ptr noundef nonnull align 16 dereferenceable(16) %1) #4 comdat align 2 {
  %3 = alloca ptr, align 8
  %4 = alloca ptr, align 8
  store ptr %0, ptr %3, align 8, !tbaa !57
  store ptr %1, ptr %4, align 8, !tbaa !65
  %5 = load ptr, ptr %3, align 8
  %6 = load ptr, ptr %4, align 8, !tbaa !65
  %7 = getelementptr inbounds nuw %struct.b3DbvtAabbMm, ptr %5, i32 0, i32 0
  %8 = call noundef nonnull align 16 dereferenceable(16) ptr @_ZN9b3Vector3mIERKS_(ptr noundef nonnull align 16 dereferenceable(16) %7, ptr noundef nonnull align 16 dereferenceable(16) %6)
  %9 = load ptr, ptr %4, align 8, !tbaa !65
  %10 = getelementptr inbounds nuw %struct.b3DbvtAabbMm, ptr %5, i32 0, i32 1
  %11 = call noundef nonnull align 16 dereferenceable(16) ptr @_ZN9b3Vector3pLERKS_(ptr noundef nonnull align 16 dereferenceable(16) %10, ptr noundef nonnull align 16 dereferenceable(16) %9)
  ret void
}

; Function Attrs: inlinehint mustprogress uwtable
define linkonce_odr dso_local { <2 x float>, <2 x float> } @_Z13b3MakeVector3fff(float noundef %0, float noundef %1, float noundef %2) #4 comdat {
  %4 = alloca %class.b3Vector3, align 16
  %5 = alloca float, align 4
  %6 = alloca float, align 4
  %7 = alloca float, align 4
  store float %0, ptr %5, align 4, !tbaa !40
  store float %1, ptr %6, align 4, !tbaa !40
  store float %2, ptr %7, align 4, !tbaa !40
  call void @_ZN9b3Vector38setValueERKfS1_S1_(ptr noundef nonnull align 16 dereferenceable(16) %4, ptr noundef nonnull align 4 dereferenceable(4) %5, ptr noundef nonnull align 4 dereferenceable(4) %6, ptr noundef nonnull align 4 dereferenceable(4) %7)
  %8 = getelementptr inbounds nuw %class.b3Vector3, ptr %4, i32 0, i32 0
  %9 = getelementptr inbounds nuw %union.anon, ptr %8, i32 0, i32 0
  %10 = load { <2 x float>, <2 x float> }, ptr %9, align 16
  ret { <2 x float>, <2 x float> } %10
}

; Function Attrs: inlinehint mustprogress nounwind uwtable
define linkonce_odr dso_local noundef zeroext i1 @_ZNK12b3DbvtAabbMm7ContainERKS_(ptr noundef nonnull align 16 dereferenceable(32) %0, ptr noundef nonnull align 16 dereferenceable(32) %1) #6 comdat align 2 {
  %3 = alloca ptr, align 8
  %4 = alloca ptr, align 8
  store ptr %0, ptr %3, align 8, !tbaa !57
  store ptr %1, ptr %4, align 8, !tbaa !57
  %5 = load ptr, ptr %3, align 8
  %6 = getelementptr inbounds nuw %struct.b3DbvtAabbMm, ptr %5, i32 0, i32 0
  %7 = getelementptr inbounds nuw %class.b3Vector3, ptr %6, i32 0, i32 0
  %8 = getelementptr inbounds nuw %struct.anon, ptr %7, i32 0, i32 0
  %9 = load float, ptr %8, align 16, !tbaa !29
  %10 = load ptr, ptr %4, align 8, !tbaa !57
  %11 = getelementptr inbounds nuw %struct.b3DbvtAabbMm, ptr %10, i32 0, i32 0
  %12 = getelementptr inbounds nuw %class.b3Vector3, ptr %11, i32 0, i32 0
  %13 = getelementptr inbounds nuw %struct.anon, ptr %12, i32 0, i32 0
  %14 = load float, ptr %13, align 16, !tbaa !29
  %15 = fcmp ole float %9, %14
  br i1 %15, label %16, label %71

16:                                               ; preds = %2
  %17 = getelementptr inbounds nuw %struct.b3DbvtAabbMm, ptr %5, i32 0, i32 0
  %18 = getelementptr inbounds nuw %class.b3Vector3, ptr %17, i32 0, i32 0
  %19 = getelementptr inbounds nuw %struct.anon, ptr %18, i32 0, i32 1
  %20 = load float, ptr %19, align 4, !tbaa !29
  %21 = load ptr, ptr %4, align 8, !tbaa !57
  %22 = getelementptr inbounds nuw %struct.b3DbvtAabbMm, ptr %21, i32 0, i32 0
  %23 = getelementptr inbounds nuw %class.b3Vector3, ptr %22, i32 0, i32 0
  %24 = getelementptr inbounds nuw %struct.anon, ptr %23, i32 0, i32 1
  %25 = load float, ptr %24, align 4, !tbaa !29
  %26 = fcmp ole float %20, %25
  br i1 %26, label %27, label %71

27:                                               ; preds = %16
  %28 = getelementptr inbounds nuw %struct.b3DbvtAabbMm, ptr %5, i32 0, i32 0
  %29 = getelementptr inbounds nuw %class.b3Vector3, ptr %28, i32 0, i32 0
  %30 = getelementptr inbounds nuw %struct.anon, ptr %29, i32 0, i32 2
  %31 = load float, ptr %30, align 8, !tbaa !29
  %32 = load ptr, ptr %4, align 8, !tbaa !57
  %33 = getelementptr inbounds nuw %struct.b3DbvtAabbMm, ptr %32, i32 0, i32 0
  %34 = getelementptr inbounds nuw %class.b3Vector3, ptr %33, i32 0, i32 0
  %35 = getelementptr inbounds nuw %struct.anon, ptr %34, i32 0, i32 2
  %36 = load float, ptr %35, align 8, !tbaa !29
  %37 = fcmp ole float %31, %36
  br i1 %37, label %38, label %71

38:                                               ; preds = %27
  %39 = getelementptr inbounds nuw %struct.b3DbvtAabbMm, ptr %5, i32 0, i32 1
  %40 = getelementptr inbounds nuw %class.b3Vector3, ptr %39, i32 0, i32 0
  %41 = getelementptr inbounds nuw %struct.anon, ptr %40, i32 0, i32 0
  %42 = load float, ptr %41, align 16, !tbaa !29
  %43 = load ptr, ptr %4, align 8, !tbaa !57
  %44 = getelementptr inbounds nuw %struct.b3DbvtAabbMm, ptr %43, i32 0, i32 1
  %45 = getelementptr inbounds nuw %class.b3Vector3, ptr %44, i32 0, i32 0
  %46 = getelementptr inbounds nuw %struct.anon, ptr %45, i32 0, i32 0
  %47 = load float, ptr %46, align 16, !tbaa !29
  %48 = fcmp oge float %42, %47
  br i1 %48, label %49, label %71

49:                                               ; preds = %38
  %50 = getelementptr inbounds nuw %struct.b3DbvtAabbMm, ptr %5, i32 0, i32 1
  %51 = getelementptr inbounds nuw %class.b3Vector3, ptr %50, i32 0, i32 0
  %52 = getelementptr inbounds nuw %struct.anon, ptr %51, i32 0, i32 1
  %53 = load float, ptr %52, align 4, !tbaa !29
  %54 = load ptr, ptr %4, align 8, !tbaa !57
  %55 = getelementptr inbounds nuw %struct.b3DbvtAabbMm, ptr %54, i32 0, i32 1
  %56 = getelementptr inbounds nuw %class.b3Vector3, ptr %55, i32 0, i32 0
  %57 = getelementptr inbounds nuw %struct.anon, ptr %56, i32 0, i32 1
  %58 = load float, ptr %57, align 4, !tbaa !29
  %59 = fcmp oge float %53, %58
  br i1 %59, label %60, label %71

60:                                               ; preds = %49
  %61 = getelementptr inbounds nuw %struct.b3DbvtAabbMm, ptr %5, i32 0, i32 1
  %62 = getelementptr inbounds nuw %class.b3Vector3, ptr %61, i32 0, i32 0
  %63 = getelementptr inbounds nuw %struct.anon, ptr %62, i32 0, i32 2
  %64 = load float, ptr %63, align 8, !tbaa !29
  %65 = load ptr, ptr %4, align 8, !tbaa !57
  %66 = getelementptr inbounds nuw %struct.b3DbvtAabbMm, ptr %65, i32 0, i32 1
  %67 = getelementptr inbounds nuw %class.b3Vector3, ptr %66, i32 0, i32 0
  %68 = getelementptr inbounds nuw %struct.anon, ptr %67, i32 0, i32 2
  %69 = load float, ptr %68, align 8, !tbaa !29
  %70 = fcmp oge float %64, %69
  br label %71

71:                                               ; preds = %60, %49, %38, %27, %16, %2
  %72 = phi i1 [ false, %49 ], [ false, %38 ], [ false, %27 ], [ false, %16 ], [ false, %2 ], [ %70, %60 ]
  ret i1 %72
}

; Function Attrs: mustprogress uwtable
define dso_local noundef zeroext i1 @_ZN12b3DynamicBvh6updateEP10b3DbvtNodeR12b3DbvtAabbMmf(ptr noundef nonnull align 8 dereferenceable(96) %0, ptr noundef %1, ptr noundef nonnull align 16 dereferenceable(32) %2, float noundef %3) #7 align 2 {
  %5 = alloca i1, align 1
  %6 = alloca ptr, align 8
  %7 = alloca ptr, align 8
  %8 = alloca ptr, align 8
  %9 = alloca float, align 4
  %10 = alloca %class.b3Vector3, align 16
  store ptr %0, ptr %6, align 8, !tbaa !4
  store ptr %1, ptr %7, align 8, !tbaa !28
  store ptr %2, ptr %8, align 8, !tbaa !57
  store float %3, ptr %9, align 4, !tbaa !40
  %11 = load ptr, ptr %6, align 8
  %12 = load ptr, ptr %7, align 8, !tbaa !28
  %13 = getelementptr inbounds nuw %struct.b3DbvtNode, ptr %12, i32 0, i32 0
  %14 = load ptr, ptr %8, align 8, !tbaa !57
  %15 = call noundef zeroext i1 @_ZNK12b3DbvtAabbMm7ContainERKS_(ptr noundef nonnull align 16 dereferenceable(32) %13, ptr noundef nonnull align 16 dereferenceable(32) %14)
  br i1 %15, label %16, label %17

16:                                               ; preds = %4
  store i1 false, ptr %5, align 1
  br label %31

17:                                               ; preds = %4
  %18 = load ptr, ptr %8, align 8, !tbaa !57
  call void @llvm.lifetime.start.p0(i64 16, ptr %10) #12
  %19 = load float, ptr %9, align 4, !tbaa !40
  %20 = load float, ptr %9, align 4, !tbaa !40
  %21 = load float, ptr %9, align 4, !tbaa !40
  %22 = call { <2 x float>, <2 x float> } @_Z13b3MakeVector3fff(float noundef %19, float noundef %20, float noundef %21)
  %23 = getelementptr inbounds nuw %class.b3Vector3, ptr %10, i32 0, i32 0
  %24 = getelementptr inbounds nuw %union.anon, ptr %23, i32 0, i32 0
  %25 = getelementptr inbounds nuw { <2 x float>, <2 x float> }, ptr %24, i32 0, i32 0
  %26 = extractvalue { <2 x float>, <2 x float> } %22, 0
  store <2 x float> %26, ptr %25, align 16
  %27 = getelementptr inbounds nuw { <2 x float>, <2 x float> }, ptr %24, i32 0, i32 1
  %28 = extractvalue { <2 x float>, <2 x float> } %22, 1
  store <2 x float> %28, ptr %27, align 8
  call void @_ZN12b3DbvtAabbMm6ExpandERK9b3Vector3(ptr noundef nonnull align 16 dereferenceable(32) %18, ptr noundef nonnull align 16 dereferenceable(16) %10)
  call void @llvm.lifetime.end.p0(i64 16, ptr %10) #12
  %29 = load ptr, ptr %7, align 8, !tbaa !28
  %30 = load ptr, ptr %8, align 8, !tbaa !57
  call void @_ZN12b3DynamicBvh6updateEP10b3DbvtNodeR12b3DbvtAabbMm(ptr noundef nonnull align 8 dereferenceable(96) %11, ptr noundef %29, ptr noundef nonnull align 16 dereferenceable(32) %30)
  store i1 true, ptr %5, align 1
  br label %31

31:                                               ; preds = %17, %16
  %32 = load i1, ptr %5, align 1
  ret i1 %32
}