; Function Attrs: mustprogress uwtable
define dso_local noundef zeroext i1 @_ZN12b3DynamicBvh6updateEP10b3DbvtNodeR12b3DbvtAabbMmf(ptr noundef nonnull align 8 captures(none) dereferenceable(96) %0, ptr noundef %1, ptr noundef nonnull align 16 captures(none) dereferenceable(32) %2, float noundef %3) local_unnamed_addr #7 align 2 {
  %5 = load float, ptr %1, align 16, !tbaa !32
  %6 = load float, ptr %2, align 16, !tbaa !32
  %7 = fcmp ugt float %5, %6
  br i1 %7, label %._ZNK12b3DbvtAabbMm7ContainERKS_.exit.thread_crit_edge, label %8

._ZNK12b3DbvtAabbMm7ContainERKS_.exit.thread_crit_edge: ; preds = %4
  %.phi.trans.insert = getelementptr inbounds nuw i8, ptr %2, i64 4
  %.pre = load float, ptr %.phi.trans.insert, align 4, !tbaa !32
  br label %_ZNK12b3DbvtAabbMm7ContainERKS_.exit.thread

8:                                                ; preds = %4
  %9 = getelementptr inbounds nuw i8, ptr %1, i64 4
  %10 = load float, ptr %9, align 4, !tbaa !32
  %11 = getelementptr inbounds nuw i8, ptr %2, i64 4
  %12 = load float, ptr %11, align 4, !tbaa !32
  %13 = fcmp ugt float %10, %12
  br i1 %13, label %_ZNK12b3DbvtAabbMm7ContainERKS_.exit.thread, label %14

14:                                               ; preds = %8
  %15 = getelementptr inbounds nuw i8, ptr %1, i64 8
  %16 = load float, ptr %15, align 8, !tbaa !32
  %17 = getelementptr inbounds nuw i8, ptr %2, i64 8
  %18 = load float, ptr %17, align 8, !tbaa !32
  %19 = fcmp ugt float %16, %18
  br i1 %19, label %_ZNK12b3DbvtAabbMm7ContainERKS_.exit.thread, label %20

20:                                               ; preds = %14
  %21 = getelementptr inbounds nuw i8, ptr %1, i64 16
  %22 = load float, ptr %21, align 16, !tbaa !32
  %23 = getelementptr inbounds nuw i8, ptr %2, i64 16
  %24 = load float, ptr %23, align 16, !tbaa !32
  %25 = fcmp ult float %22, %24
  br i1 %25, label %_ZNK12b3DbvtAabbMm7ContainERKS_.exit.thread, label %26

26:                                               ; preds = %20
  %27 = getelementptr inbounds nuw i8, ptr %1, i64 20
  %28 = load float, ptr %27, align 4, !tbaa !32
  %29 = getelementptr inbounds nuw i8, ptr %2, i64 20
  %30 = load float, ptr %29, align 4, !tbaa !32
  %31 = fcmp ult float %28, %30
  br i1 %31, label %_ZNK12b3DbvtAabbMm7ContainERKS_.exit.thread, label %_ZNK12b3DbvtAabbMm7ContainERKS_.exit

_ZNK12b3DbvtAabbMm7ContainERKS_.exit:             ; preds = %26
  %32 = getelementptr inbounds nuw i8, ptr %1, i64 24
  %33 = load float, ptr %32, align 8, !tbaa !32
  %34 = getelementptr inbounds nuw i8, ptr %2, i64 24
  %35 = load float, ptr %34, align 8, !tbaa !32
  %36 = fcmp ult float %33, %35
  br i1 %36, label %_ZNK12b3DbvtAabbMm7ContainERKS_.exit.thread, label %64

_ZNK12b3DbvtAabbMm7ContainERKS_.exit.thread:      ; preds = %._ZNK12b3DbvtAabbMm7ContainERKS_.exit.thread_crit_edge, %8, %14, %20, %26, %_ZNK12b3DbvtAabbMm7ContainERKS_.exit
  %37 = phi float [ %.pre, %._ZNK12b3DbvtAabbMm7ContainERKS_.exit.thread_crit_edge ], [ %12, %8 ], [ %12, %14 ], [ %12, %20 ], [ %12, %26 ], [ %12, %_ZNK12b3DbvtAabbMm7ContainERKS_.exit ]
  %38 = fsub float %6, %3
  store float %38, ptr %2, align 16, !tbaa !32
  %39 = getelementptr inbounds nuw i8, ptr %2, i64 4
  %40 = fsub float %37, %3
  store float %40, ptr %39, align 4, !tbaa !32
  %41 = getelementptr inbounds nuw i8, ptr %2, i64 8
  %42 = load float, ptr %41, align 8, !tbaa !32
  %43 = fsub float %42, %3
  store float %43, ptr %41, align 8, !tbaa !32
  %44 = getelementptr inbounds nuw i8, ptr %2, i64 16
  %45 = load float, ptr %44, align 16, !tbaa !32
  %46 = fadd float %3, %45
  store float %46, ptr %44, align 16, !tbaa !32
  %47 = getelementptr inbounds nuw i8, ptr %2, i64 20
  %48 = load float, ptr %47, align 4, !tbaa !32
  %49 = fadd float %3, %48
  store float %49, ptr %47, align 4, !tbaa !32
  %50 = getelementptr inbounds nuw i8, ptr %2, i64 24
  %51 = load float, ptr %50, align 8, !tbaa !32
  %52 = fadd float %3, %51
  store float %52, ptr %50, align 8, !tbaa !32
  %53 = tail call fastcc noundef ptr @_ZL12b3RemoveLeafP12b3DynamicBvhP10b3DbvtNode(ptr noundef nonnull align 8 dereferenceable(96) %0, ptr noundef nonnull %1)
  %.not.i = icmp eq ptr %53, null
  br i1 %.not.i, label %_ZN12b3DynamicBvh6updateEP10b3DbvtNodeR12b3DbvtAabbMm.exit, label %54

54:                                               ; preds = %_ZNK12b3DbvtAabbMm7ContainERKS_.exit.thread
  %55 = getelementptr inbounds nuw i8, ptr %0, i64 16
  %56 = load i32, ptr %55, align 8, !tbaa !23
  %57 = icmp sgt i32 %56, -1
  br i1 %57, label %.preheader.i, label %62

.preheader.i:                                     ; preds = %54
  %.not19.i = icmp eq i32 %56, 0
  br i1 %.not19.i, label %_ZN12b3DynamicBvh6updateEP10b3DbvtNodeR12b3DbvtAabbMm.exit, label %.lr.ph.i

58:                                               ; preds = %.lr.ph.i
  %59 = add nuw nsw i32 %.016.i, 1
  %exitcond.not.i = icmp eq i32 %59, %56
  br i1 %exitcond.not.i, label %_ZN12b3DynamicBvh6updateEP10b3DbvtNodeR12b3DbvtAabbMm.exit, label %.lr.ph.i, !llvm.loop !73

.lr.ph.i:                                         ; preds = %.preheader.i, %58
  %.016.i = phi i32 [ %59, %58 ], [ 0, %.preheader.i ]
  %.115.i = phi ptr [ %61, %58 ], [ %53, %.preheader.i ]
  %60 = getelementptr inbounds nuw i8, ptr %.115.i, i64 32
  %61 = load ptr, ptr %60, align 16, !tbaa !46
  %.not14.i = icmp eq ptr %61, null
  br i1 %.not14.i, label %_ZN12b3DynamicBvh6updateEP10b3DbvtNodeR12b3DbvtAabbMm.exit, label %58

62:                                               ; preds = %54
  %63 = load ptr, ptr %0, align 8, !tbaa !28
  br label %_ZN12b3DynamicBvh6updateEP10b3DbvtNodeR12b3DbvtAabbMm.exit

_ZN12b3DynamicBvh6updateEP10b3DbvtNodeR12b3DbvtAabbMm.exit: ; preds = %58, %.lr.ph.i, %_ZNK12b3DbvtAabbMm7ContainERKS_.exit.thread, %.preheader.i, %62
  %.010.i = phi ptr [ %63, %62 ], [ null, %_ZNK12b3DbvtAabbMm7ContainERKS_.exit.thread ], [ %53, %.preheader.i ], [ %.115.i, %.lr.ph.i ], [ %61, %58 ]
  tail call void @llvm.memcpy.p0.p0.i64(ptr noundef nonnull align 16 dereferenceable(32) %1, ptr noundef nonnull readonly align 16 dereferenceable(32) %2, i64 32, i1 false), !tbaa.struct !59
  tail call fastcc void @_ZL12b3InsertLeafP12b3DynamicBvhP10b3DbvtNodeS2_(ptr noundef nonnull align 8 dereferenceable(96) %0, ptr noundef %.010.i, ptr noundef nonnull %1)
  br label %64

64:                                               ; preds = %_ZNK12b3DbvtAabbMm7ContainERKS_.exit, %_ZN12b3DynamicBvh6updateEP10b3DbvtNodeR12b3DbvtAabbMm.exit
  %.0 = phi i1 [ false, %_ZNK12b3DbvtAabbMm7ContainERKS_.exit ], [ true, %_ZN12b3DynamicBvh6updateEP10b3DbvtNodeR12b3DbvtAabbMm.exit ]
  ret i1 %.0
}